(dp1
S'OriginalConfig'
p2
ccopy_reg
_reconstructor
p3
(cWMCore.Configuration
Configuration
p4
c__builtin__
object
p5
NtRp6
(dp7
S'Site'
p8
g3
(cWMCore.Configuration
ConfigSection
p9
g5
NtRp10
(dp11
S'_internal_documentation'
p12
S''
sS'_internal_settings'
p13
c__builtin__
set
p14
((lp15
S'storageSite'
p16
atRp17
sS'_internal_name'
p18
g8
sS'_internal_docstrings'
p19
(dp20
sS'_internal_children'
p21
g14
((ltRp22
sg16
S'T2_CH_CERN'
p23
sS'_internal_parent_ref'
p24
NsbsS'_internal_sections'
p25
(lp26
S'General'
p27
aS'JobType'
p28
aS'Data'
p29
ag8
aS'User'
p30
aS'Debug'
p31
asg27
g3
(g9
g5
NtRp32
(dp33
S'transferLogs'
p34
I00
sg12
S''
sg13
g14
((lp35
g34
aS'workArea'
p36
aS'requestName'
p37
atRp38
sg18
g27
sg19
(dp39
sg21
g14
((ltRp40
sg37
S'Bsmumuphi_2016D'
p41
sg24
Nsg36
S'crab_projects_Bsmumuphi_2016D'
p42
sbsS'_internal_webapps'
p43
(lp44
sg30
g3
(g9
g5
NtRp45
(dp46
g12
S''
sg13
g14
((ltRp47
sg18
g30
sg19
(dp48
sg21
g14
((ltRp49
sg24
NsbsS'_internal_components'
p50
(lp51
sg31
g3
(g9
g5
NtRp52
(dp53
g12
S''
sg13
g14
((ltRp54
sg18
g31
sg19
(dp55
sg21
g14
((ltRp56
sg24
Nsbsg29
g3
(g9
g5
NtRp57
(dp58
S'inputDataset'
p59
S'/Charmonium/Run2016D-PromptReco-v2/AOD'
p60
sS'outputDatasetTag'
p61
S'CRAB3_Bsmumuphi_2016D'
p62
sS'publishDBS'
p63
S'phys03'
p64
sS'publication'
p65
I00
sS'splitting'
p66
S'LumiBased'
p67
sS'unitsPerJob'
p68
I20
sg12
S''
sg13
g14
((lp69
g59
ag61
ag63
ag65
ag68
ag66
aS'inputDBS'
p70
aS'lumiMask'
p71
aS'outLFNDirBase'
p72
atRp73
sg18
g29
sg70
S'global'
p74
sg19
(dp75
sg21
g14
((ltRp76
sg72
S'/store/user/jmejiagu/Bsmumuphi_2016D/'
p77
sg24
Nsg71
S'https://cms-service-dqm.web.cern.ch/cms-service-dqm/CAF/certification/Collisions16/13TeV/Cert_271036-277148_13TeV_PromptReco_Collisions16_JSON_MuonPhys.txt'
p78
sbsg28
g3
(g9
g5
NtRp79
(dp80
g12
S''
sg13
g14
((lp81
S'psetName'
p82
aS'pluginName'
p83
atRp84
sg18
g28
sg19
(dp85
sg83
S'Analysis'
p86
sg21
g14
((ltRp87
sg82
S'/afs/cern.ch/work/j/jmejiagu/public/data2015_RunII/new_compaskym/Bsmumuphi/CMSSW_8_1_0_pre9/src/Bphysics/BsToPhiMuMu/python/bstophimumu_Run2016.py'
p88
sg24
NsbsbsS'voGroup'
p89
S''
sS'Server'
p90
S'cmsweb.cern.ch'
p91
sS'instance'
p92
S'prod'
p93
sS'RequestName'
p94
S'160813_123348:jmejiagu_crab_Bsmumuphi_2016D'
p95
sS'voRole'
p96
S'NULL'
p97
sS'Port'
p98
S''
s.